target datalayout = "e-m:e-p270:32:32-p271:32:32-p272:64:64-i64:64-i128:128-f80:128-n8:16:32:64-S128"
target triple = "x86_64-pc-linux-gnu"

%struct.Vec_Int_t_ = type { i32, i32, ptr }
%struct.Vec_Str_t_ = type { i32, i32, ptr }
%struct.Vec_Ptr_t_ = type { i32, i32, ptr }
%struct.Cba_Ntk_t_ = type { ptr, i32, i32, i32, i8, %struct.Vec_Int_t_, %struct.Vec_Int_t_, %struct.Vec_Int_t_, %struct.Vec_Int_t_, %struct.Vec_Str_t_, %struct.Vec_Int_t_, %struct.Vec_Int_t_, %struct.Vec_Int_t_, %struct.Vec_Int_t_, %struct.Vec_Int_t_, %struct.Vec_Int_t_, %struct.Vec_Int_t_, %struct.Vec_Int_t_, %struct.Vec_Int_t_, %struct.Vec_Int_t_, %struct.Vec_Int_t_, %struct.Vec_Int_t_, %struct.Vec_Int_t_, %struct.Vec_Int_t_, %struct.Vec_Int_t_, %struct.Vec_Int_t_, %struct.Vec_Int_t_, %struct.Vec_Int_t_, ptr, %struct.Vec_Int_t_, %struct.Vec_Int_t_ }
%struct.Cba_Man_t_ = type { ptr, ptr, ptr, ptr, ptr, ptr, %struct.Vec_Int_t_, %struct.Vec_Int_t_, %struct.Vec_Int_t_, %struct.Vec_Int_t_, [90 x ptr], [90 x i32], [90 x i32], i32, %struct.Vec_Ptr_t_, i32, %struct.Vec_Str_t_, %struct.Vec_Str_t_, ptr }
%struct.Hash_IntObj_t_ = type { i32, i32, i32, i32 }
%struct.Hash_IntMan_t_ = type { ptr, ptr, i32 }

; Function Attrs: inlinehint nounwind uwtable
define internal ptr @Vec_IntEntryP(ptr noundef %0, i32 noundef %1) #3 {
  %3 = alloca ptr, align 8
  %4 = alloca i32, align 4
  store ptr %0, ptr %3, align 8, !tbaa !29
  store i32 %1, ptr %4, align 4, !tbaa !12
  %5 = load ptr, ptr %3, align 8, !tbaa !29
  %6 = getelementptr inbounds nuw %struct.Vec_Int_t_, ptr %5, i32 0, i32 2
  %7 = load ptr, ptr %6, align 8, !tbaa !33
  %8 = load i32, ptr %4, align 4, !tbaa !12
  %9 = sext i32 %8 to i64
  %10 = getelementptr inbounds i32, ptr %7, i64 %9
  ret ptr %10
}

; Function Attrs: inlinehint nounwind uwtable
define internal void @Vec_IntGrow(ptr noundef %0, i32 noundef %1) #3 {
  %3 = alloca ptr, align 8
  %4 = alloca i32, align 4
  store ptr %0, ptr %3, align 8, !tbaa !29
  store i32 %1, ptr %4, align 4, !tbaa !12
  %5 = load ptr, ptr %3, align 8, !tbaa !29
  %6 = getelementptr inbounds nuw %struct.Vec_Int_t_, ptr %5, i32 0, i32 0
  %7 = load i32, ptr %6, align 8, !tbaa !96
  %8 = load i32, ptr %4, align 4, !tbaa !12
  %9 = icmp sge i32 %7, %8
  br i1 %9, label %10, label %11

10:                                               ; preds = %2
  br label %36

11:                                               ; preds = %2
  %12 = load ptr, ptr %3, align 8, !tbaa !29
  %13 = getelementptr inbounds nuw %struct.Vec_Int_t_, ptr %12, i32 0, i32 2
  %14 = load ptr, ptr %13, align 8, !tbaa !33
  %15 = icmp ne ptr %14, null
  br i1 %15, label %16, label %24

16:                                               ; preds = %11
  %17 = load ptr, ptr %3, align 8, !tbaa !29
  %18 = getelementptr inbounds nuw %struct.Vec_Int_t_, ptr %17, i32 0, i32 2
  %19 = load ptr, ptr %18, align 8, !tbaa !33
  %20 = load i32, ptr %4, align 4, !tbaa !12
  %21 = sext i32 %20 to i64
  %22 = mul i64 4, %21
  %23 = call ptr @realloc(ptr noundef %19, i64 noundef %22) #14
  br label %29

24:                                               ; preds = %11
  %25 = load i32, ptr %4, align 4, !tbaa !12
  %26 = sext i32 %25 to i64
  %27 = mul i64 4, %26
  %28 = call noalias ptr @malloc(i64 noundef %27) #15
  br label %29

29:                                               ; preds = %24, %16
  %30 = phi ptr [ %23, %16 ], [ %28, %24 ]
  %31 = load ptr, ptr %3, align 8, !tbaa !29
  %32 = getelementptr inbounds nuw %struct.Vec_Int_t_, ptr %31, i32 0, i32 2
  store ptr %30, ptr %32, align 8, !tbaa !33
  %33 = load i32, ptr %4, align 4, !tbaa !12
  %34 = load ptr, ptr %3, align 8, !tbaa !29
  %35 = getelementptr inbounds nuw %struct.Vec_Int_t_, ptr %34, i32 0, i32 0
  store i32 %33, ptr %35, align 8, !tbaa !96
  br label %36

36:                                               ; preds = %29, %10
  ret void
}

; Function Attrs: inlinehint nounwind uwtable
define internal ptr @Hash_IntObj(ptr noundef %0, i32 noundef %1) #3 {
  %3 = alloca ptr, align 8
  %4 = alloca i32, align 4
  store ptr %0, ptr %3, align 8, !tbaa !90
  store i32 %1, ptr %4, align 4, !tbaa !12
  %5 = load i32, ptr %4, align 4, !tbaa !12
  %6 = icmp ne i32 %5, 0
  br i1 %6, label %7, label %14

7:                                                ; preds = %2
  %8 = load ptr, ptr %3, align 8, !tbaa !90
  %9 = getelementptr inbounds nuw %struct.Hash_IntMan_t_, ptr %8, i32 0, i32 1
  %10 = load ptr, ptr %9, align 8, !tbaa !94
  %11 = load i32, ptr %4, align 4, !tbaa !12
  %12 = mul nsw i32 4, %11
  %13 = call ptr @Vec_IntEntryP(ptr noundef %10, i32 noundef %12)
  br label %15

14:                                               ; preds = %2
  br label %15

15:                                               ; preds = %14, %7
  %16 = phi ptr [ %13, %7 ], [ null, %14 ]
  ret ptr %16
}

; Function Attrs: inlinehint nounwind uwtable
define internal i32 @Vec_IntEntry(ptr noundef %0, i32 noundef %1) #3 {
  %3 = alloca ptr, align 8
  %4 = alloca i32, align 4
  store ptr %0, ptr %3, align 8, !tbaa !29
  store i32 %1, ptr %4, align 4, !tbaa !12
  %5 = load ptr, ptr %3, align 8, !tbaa !29
  %6 = getelementptr inbounds nuw %struct.Vec_Int_t_, ptr %5, i32 0, i32 2
  %7 = load ptr, ptr %6, align 8, !tbaa !33
  %8 = load i32, ptr %4, align 4, !tbaa !12
  %9 = sext i32 %8 to i64
  %10 = getelementptr inbounds i32, ptr %7, i64 %9
  %11 = load i32, ptr %10, align 4, !tbaa !12
  ret i32 %11
}

; Function Attrs: inlinehint nounwind uwtable
define internal void @Vec_IntFillExtra(ptr noundef %0, i32 noundef %1, i32 noundef %2) #3 {
  %4 = alloca ptr, align 8
  %5 = alloca i32, align 4
  %6 = alloca i32, align 4
  %7 = alloca i32, align 4
  %8 = alloca i32, align 4
  store ptr %0, ptr %4, align 8, !tbaa !29
  store i32 %1, ptr %5, align 4, !tbaa !12
  store i32 %2, ptr %6, align 4, !tbaa !12
  call void @llvm.lifetime.start.p0(i64 4, ptr %7) #12
  %9 = load i32, ptr %5, align 4, !tbaa !12
  %10 = load ptr, ptr %4, align 8, !tbaa !29
  %11 = getelementptr inbounds nuw %struct.Vec_Int_t_, ptr %10, i32 0, i32 1
  %12 = load i32, ptr %11, align 4, !tbaa !32
  %13 = icmp sle i32 %9, %12
  br i1 %13, label %14, label %15

14:                                               ; preds = %3
  store i32 1, ptr %8, align 4
  br label %61

15:                                               ; preds = %3
  %16 = load i32, ptr %5, align 4, !tbaa !12
  %17 = load ptr, ptr %4, align 8, !tbaa !29
  %18 = getelementptr inbounds nuw %struct.Vec_Int_t_, ptr %17, i32 0, i32 0
  %19 = load i32, ptr %18, align 8, !tbaa !96
  %20 = mul nsw i32 2, %19
  %21 = icmp sgt i32 %16, %20
  br i1 %21, label %22, label %25

22:                                               ; preds = %15
  %23 = load ptr, ptr %4, align 8, !tbaa !29
  %24 = load i32, ptr %5, align 4, !tbaa !12
  call void @Vec_IntGrow(ptr noundef %23, i32 noundef %24)
  br label %38

25:                                               ; preds = %15
  %26 = load i32, ptr %5, align 4, !tbaa !12
  %27 = load ptr, ptr %4, align 8, !tbaa !29
  %28 = getelementptr inbounds nuw %struct.Vec_Int_t_, ptr %27, i32 0, i32 0
  %29 = load i32, ptr %28, align 8, !tbaa !96
  %30 = icmp sgt i32 %26, %29
  br i1 %30, label %31, label %37

31:                                               ; preds = %25
  %32 = load ptr, ptr %4, align 8, !tbaa !29
  %33 = load ptr, ptr %4, align 8, !tbaa !29
  %34 = getelementptr inbounds nuw %struct.Vec_Int_t_, ptr %33, i32 0, i32 0
  %35 = load i32, ptr %34, align 8, !tbaa !96
  %36 = mul nsw i32 2, %35
  call void @Vec_IntGrow(ptr noundef %32, i32 noundef %36)
  br label %37

37:                                               ; preds = %31, %25
  br label %38

38:                                               ; preds = %37, %22
  %39 = load ptr, ptr %4, align 8, !tbaa !29
  %40 = getelementptr inbounds nuw %struct.Vec_Int_t_, ptr %39, i32 0, i32 1
  %41 = load i32, ptr %40, align 4, !tbaa !32
  store i32 %41, ptr %7, align 4, !tbaa !12
  br label %42

42:                                               ; preds = %54, %38
  %43 = load i32, ptr %7, align 4, !tbaa !12
  %44 = load i32, ptr %5, align 4, !tbaa !12
  %45 = icmp slt i32 %43, %44
  br i1 %45, label %46, label %57

46:                                               ; preds = %42
  %47 = load i32, ptr %6, align 4, !tbaa !12
  %48 = load ptr, ptr %4, align 8, !tbaa !29
  %49 = getelementptr inbounds nuw %struct.Vec_Int_t_, ptr %48, i32 0, i32 2
  %50 = load ptr, ptr %49, align 8, !tbaa !33
  %51 = load i32, ptr %7, align 4, !tbaa !12
  %52 = sext i32 %51 to i64
  %53 = getelementptr inbounds i32, ptr %50, i64 %52
  store i32 %47, ptr %53, align 4, !tbaa !12
  br label %54

54:                                               ; preds = %46
  %55 = load i32, ptr %7, align 4, !tbaa !12
  %56 = add nsw i32 %55, 1
  store i32 %56, ptr %7, align 4, !tbaa !12
  br label %42, !llvm.loop !103

57:                                               ; preds = %42
  %58 = load i32, ptr %5, align 4, !tbaa !12
  %59 = load ptr, ptr %4, align 8, !tbaa !29
  %60 = getelementptr inbounds nuw %struct.Vec_Int_t_, ptr %59, i32 0, i32 1
  store i32 %58, ptr %60, align 4, !tbaa !32
  store i32 0, ptr %8, align 4
  br label %61

61:                                               ; preds = %57, %14
  call void @llvm.lifetime.end.p0(i64 4, ptr %7) #12
  %62 = load i32, ptr %8, align 4
  switch i32 %62, label %64 [
    i32 0, label %63
    i32 1, label %63
  ]

63:                                               ; preds = %61, %61
  ret void

64:                                               ; preds = %61
  unreachable
}

; Function Attrs: inlinehint nounwind uwtable
define internal i32 @Vec_IntSize(ptr noundef %0) #3 {
  %2 = alloca ptr, align 8
  store ptr %0, ptr %2, align 8, !tbaa !29
  %3 = load ptr, ptr %2, align 8, !tbaa !29
  %4 = getelementptr inbounds nuw %struct.Vec_Int_t_, ptr %3, i32 0, i32 1
  %5 = load i32, ptr %4, align 4, !tbaa !32
  ret i32 %5
}

; Function Attrs: inlinehint nounwind uwtable
define internal i32 @Hash_IntObjData1(ptr noundef %0, i32 noundef %1) #3 {
  %3 = alloca ptr, align 8
  %4 = alloca i32, align 4
  store ptr %0, ptr %3, align 8, !tbaa !90
  store i32 %1, ptr %4, align 4, !tbaa !12
  %5 = load ptr, ptr %3, align 8, !tbaa !90
  %6 = load i32, ptr %4, align 4, !tbaa !12
  %7 = call ptr @Hash_IntObj(ptr noundef %5, i32 noundef %6)
  %8 = getelementptr inbounds nuw %struct.Hash_IntObj_t_, ptr %7, i32 0, i32 1
  %9 = load i32, ptr %8, align 4, !tbaa !93
  ret i32 %9
}

; Function Attrs: inlinehint nounwind uwtable
define internal i32 @Hash_IntObjData0(ptr noundef %0, i32 noundef %1) #3 {
  %3 = alloca ptr, align 8
  %4 = alloca i32, align 4
  store ptr %0, ptr %3, align 8, !tbaa !90
  store i32 %1, ptr %4, align 4, !tbaa !12
  %5 = load ptr, ptr %3, align 8, !tbaa !90
  %6 = load i32, ptr %4, align 4, !tbaa !12
  %7 = call ptr @Hash_IntObj(ptr noundef %5, i32 noundef %6)
  %8 = getelementptr inbounds nuw %struct.Hash_IntObj_t_, ptr %7, i32 0, i32 0
  %9 = load i32, ptr %8, align 4, !tbaa !91
  ret i32 %9
}

; Function Attrs: inlinehint nounwind uwtable
define internal i32 @Vec_IntGetEntry(ptr noundef %0, i32 noundef %1) #3 {
  %3 = alloca ptr, align 8
  %4 = alloca i32, align 4
  store ptr %0, ptr %3, align 8, !tbaa !29
  store i32 %1, ptr %4, align 4, !tbaa !12
  %5 = load ptr, ptr %3, align 8, !tbaa !29
  %6 = load i32, ptr %4, align 4, !tbaa !12
  %7 = add nsw i32 %6, 1
  call void @Vec_IntFillExtra(ptr noundef %5, i32 noundef %7, i32 noundef 0)
  %8 = load ptr, ptr %3, align 8, !tbaa !29
  %9 = load i32, ptr %4, align 4, !tbaa !12
  %10 = call i32 @Vec_IntEntry(ptr noundef %8, i32 noundef %9)
  ret i32 %10
}

; Function Attrs: inlinehint nounwind uwtable
define internal i32 @Cba_NtkHasFonRanges(ptr noundef %0) #3 {
  %2 = alloca ptr, align 8
  store ptr %0, ptr %2, align 8, !tbaa !43
  %3 = load ptr, ptr %2, align 8, !tbaa !43
  %4 = getelementptr inbounds nuw %struct.Cba_Ntk_t_, ptr %3, i32 0, i32 21
  %5 = call i32 @Vec_IntSize(ptr noundef %4)
  %6 = icmp sgt i32 %5, 0
  %7 = zext i1 %6 to i32
  ret i32 %7
}

; Function Attrs: inlinehint nounwind uwtable
define internal ptr @Cba_ManConst(ptr noundef %0, i32 noundef %1) #3 {
  %3 = alloca ptr, align 8
  %4 = alloca i32, align 4
  store ptr %0, ptr %3, align 8, !tbaa !84
  store i32 %1, ptr %4, align 4, !tbaa !12
  %5 = load ptr, ptr %3, align 8, !tbaa !84
  %6 = getelementptr inbounds nuw %struct.Cba_Man_t_, ptr %5, i32 0, i32 3
  %7 = load ptr, ptr %6, align 8, !tbaa !104
  %8 = load i32, ptr %4, align 4, !tbaa !12
  %9 = call ptr @Abc_NamStr(ptr noundef %7, i32 noundef %8)
  ret ptr %9
}

; Function Attrs: inlinehint nounwind uwtable
define internal i32 @Cba_NtkRangeRight(ptr noundef %0, i32 noundef %1) #3 {
  %3 = alloca ptr, align 8
  %4 = alloca i32, align 4
  store ptr %0, ptr %3, align 8, !tbaa !43
  store i32 %1, ptr %4, align 4, !tbaa !12
  %5 = load i32, ptr %4, align 4, !tbaa !12
  %6 = icmp ne i32 %5, 0
  br i1 %6, label %7, label %15

7:                                                ; preds = %2
  %8 = load ptr, ptr %3, align 8, !tbaa !43
  %9 = getelementptr inbounds nuw %struct.Cba_Ntk_t_, ptr %8, i32 0, i32 0
  %10 = load ptr, ptr %9, align 8, !tbaa !46
  %11 = getelementptr inbounds nuw %struct.Cba_Man_t_, ptr %10, i32 0, i32 5
  %12 = load ptr, ptr %11, align 8, !tbaa !51
  %13 = load i32, ptr %4, align 4, !tbaa !12
  %14 = call i32 @Hash_IntObjData1(ptr noundef %12, i32 noundef %13)
  br label %16

15:                                               ; preds = %2
  br label %16

16:                                               ; preds = %15, %7
  %17 = phi i32 [ %14, %7 ], [ 0, %15 ]
  ret i32 %17
}

; Function Attrs: inlinehint nounwind uwtable
define internal i32 @Cba_NtkRangeLeft(ptr noundef %0, i32 noundef %1) #3 {
  %3 = alloca ptr, align 8
  %4 = alloca i32, align 4
  store ptr %0, ptr %3, align 8, !tbaa !43
  store i32 %1, ptr %4, align 4, !tbaa !12
  %5 = load i32, ptr %4, align 4, !tbaa !12
  %6 = icmp ne i32 %5, 0
  br i1 %6, label %7, label %15

7:                                                ; preds = %2
  %8 = load ptr, ptr %3, align 8, !tbaa !43
  %9 = getelementptr inbounds nuw %struct.Cba_Ntk_t_, ptr %8, i32 0, i32 0
  %10 = load ptr, ptr %9, align 8, !tbaa !46
  %11 = getelementptr inbounds nuw %struct.Cba_Man_t_, ptr %10, i32 0, i32 5
  %12 = load ptr, ptr %11, align 8, !tbaa !51
  %13 = load i32, ptr %4, align 4, !tbaa !12
  %14 = call i32 @Hash_IntObjData0(ptr noundef %12, i32 noundef %13)
  br label %16

15:                                               ; preds = %2
  br label %16

16:                                               ; preds = %15, %7
  %17 = phi i32 [ %14, %7 ], [ 0, %15 ]
  ret i32 %17
}

; Function Attrs: inlinehint nounwind uwtable
define internal i32 @Abc_Lit2Var(i32 noundef %0) #3 {
  %2 = alloca i32, align 4
  store i32 %0, ptr %2, align 4, !tbaa !12
  %3 = load i32, ptr %2, align 4, !tbaa !12
  %4 = ashr i32 %3, 1
  ret i32 %4
}

; Function Attrs: inlinehint nounwind uwtable
define internal i32 @Cba_FonRangeId(ptr noundef %0, i32 noundef %1) #3 {
  %3 = alloca ptr, align 8
  %4 = alloca i32, align 4
  store ptr %0, ptr %3, align 8, !tbaa !43
  store i32 %1, ptr %4, align 4, !tbaa !12
  %5 = load ptr, ptr %3, align 8, !tbaa !43
  %6 = call i32 @Cba_NtkHasFonRanges(ptr noundef %5)
  %7 = icmp ne i32 %6, 0
  br i1 %7, label %8, label %13

8:                                                ; preds = %2
  %9 = load ptr, ptr %3, align 8, !tbaa !43
  %10 = getelementptr inbounds nuw %struct.Cba_Ntk_t_, ptr %9, i32 0, i32 21
  %11 = load i32, ptr %4, align 4, !tbaa !12
  %12 = call i32 @Vec_IntGetEntry(ptr noundef %10, i32 noundef %11)
  br label %14

13:                                               ; preds = %2
  br label %14

14:                                               ; preds = %13, %8
  %15 = phi i32 [ %12, %8 ], [ 0, %13 ]
  ret i32 %15
}

; Function Attrs: inlinehint nounwind willreturn memory(read) uwtable
define available_externally i32 @atoi(ptr noundef nonnull %0) #10 {
  %2 = alloca ptr, align 8
  store ptr %0, ptr %2, align 8, !tbaa !8
  %3 = load ptr, ptr %2, align 8, !tbaa !8
  %4 = call i64 @strtol(ptr noundef %3, ptr noundef null, i32 noundef 10) #12
  %5 = trunc i64 %4 to i32
  ret i32 %5
}

; Function Attrs: inlinehint nounwind uwtable
define internal ptr @Cba_NtkConst(ptr noundef %0, i32 noundef %1) #3 {
  %3 = alloca ptr, align 8
  %4 = alloca i32, align 4
  store ptr %0, ptr %3, align 8, !tbaa !43
  store i32 %1, ptr %4, align 4, !tbaa !12
  %5 = load ptr, ptr %3, align 8, !tbaa !43
  %6 = getelementptr inbounds nuw %struct.Cba_Ntk_t_, ptr %5, i32 0, i32 0
  %7 = load ptr, ptr %6, align 8, !tbaa !46
  %8 = load i32, ptr %4, align 4, !tbaa !12
  %9 = call ptr @Cba_ManConst(ptr noundef %7, i32 noundef %8)
  ret ptr %9
}

; Function Attrs: inlinehint nounwind uwtable
define internal i32 @Cba_FonConst(i32 noundef %0) #3 {
  %2 = alloca i32, align 4
  store i32 %0, ptr %2, align 4, !tbaa !12
  %3 = load i32, ptr %2, align 4, !tbaa !12
  %4 = sub nsw i32 0, %3
  %5 = sub nsw i32 %4, 1
  ret i32 %5
}

; Function Attrs: inlinehint nounwind uwtable
define internal i32 @Cba_NtkRangeSize(ptr noundef %0, i32 noundef %1) #3 {
  %3 = alloca ptr, align 8
  %4 = alloca i32, align 4
  %5 = alloca i32, align 4
  %6 = alloca i32, align 4
  store ptr %0, ptr %3, align 8, !tbaa !43
  store i32 %1, ptr %4, align 4, !tbaa !12
  call void @llvm.lifetime.start.p0(i64 4, ptr %5) #12
  %7 = load ptr, ptr %3, align 8, !tbaa !43
  %8 = load i32, ptr %4, align 4, !tbaa !12
  %9 = call i32 @Cba_NtkRangeLeft(ptr noundef %7, i32 noundef %8)
  store i32 %9, ptr %5, align 4, !tbaa !12
  call void @llvm.lifetime.start.p0(i64 4, ptr %6) #12
  %10 = load ptr, ptr %3, align 8, !tbaa !43
  %11 = load i32, ptr %4, align 4, !tbaa !12
  %12 = call i32 @Cba_NtkRangeRight(ptr noundef %10, i32 noundef %11)
  store i32 %12, ptr %6, align 4, !tbaa !12
  %13 = load i32, ptr %5, align 4, !tbaa !12
  %14 = load i32, ptr %6, align 4, !tbaa !12
  %15 = icmp sgt i32 %13, %14
  br i1 %15, label %16, label %20

16:                                               ; preds = %2
  %17 = load i32, ptr %5, align 4, !tbaa !12
  %18 = load i32, ptr %6, align 4, !tbaa !12
  %19 = sub nsw i32 %17, %18
  br label %24

20:                                               ; preds = %2
  %21 = load i32, ptr %6, align 4, !tbaa !12
  %22 = load i32, ptr %5, align 4, !tbaa !12
  %23 = sub nsw i32 %21, %22
  br label %24

24:                                               ; preds = %20, %16
  %25 = phi i32 [ %19, %16 ], [ %23, %20 ]
  %26 = add nsw i32 1, %25
  call void @llvm.lifetime.end.p0(i64 4, ptr %6) #12
  call void @llvm.lifetime.end.p0(i64 4, ptr %5) #12
  ret i32 %26
}

; Function Attrs: inlinehint nounwind uwtable
define internal i32 @Cba_FonRange(ptr noundef %0, i32 noundef %1) #3 {
  %3 = alloca ptr, align 8
  %4 = alloca i32, align 4
  store ptr %0, ptr %3, align 8, !tbaa !43
  store i32 %1, ptr %4, align 4, !tbaa !12
  %5 = load ptr, ptr %3, align 8, !tbaa !43
  %6 = load i32, ptr %4, align 4, !tbaa !12
  %7 = call i32 @Cba_FonRangeId(ptr noundef %5, i32 noundef %6)
  %8 = call i32 @Abc_Lit2Var(i32 noundef %7)
  ret i32 %8
}

; Function Attrs: inlinehint nounwind uwtable
define internal i32 @Cba_FonConstRangeSize(ptr noundef %0, i32 noundef %1) #3 {
  %3 = alloca ptr, align 8
  %4 = alloca i32, align 4
  store ptr %0, ptr %3, align 8, !tbaa !43
  store i32 %1, ptr %4, align 4, !tbaa !12
  %5 = load ptr, ptr %3, align 8, !tbaa !43
  %6 = load i32, ptr %4, align 4, !tbaa !12
  %7 = call i32 @Cba_FonConst(i32 noundef %6)
  %8 = call ptr @Cba_NtkConst(ptr noundef %5, i32 noundef %7)
  %9 = call i32 @atoi(ptr noundef %8) #13
  ret i32 %9
}

; Function Attrs: inlinehint nounwind uwtable
define internal i32 @Cba_FonIsConst(i32 noundef %0) #3 {
  %2 = alloca i32, align 4
  store i32 %0, ptr %2, align 4, !tbaa !12
  %3 = load i32, ptr %2, align 4, !tbaa !12
  %4 = icmp slt i32 %3, 0
  %5 = zext i1 %4 to i32
  ret i32 %5
}

; Function Attrs: inlinehint nounwind uwtable
define internal i32 @Cba_FonRangeSize(ptr noundef %0, i32 noundef %1) #3 {
  %3 = alloca ptr, align 8
  %4 = alloca i32, align 4
  store ptr %0, ptr %3, align 8, !tbaa !43
  store i32 %1, ptr %4, align 4, !tbaa !12
  %5 = load i32, ptr %4, align 4, !tbaa !12
  %6 = call i32 @Cba_FonIsConst(i32 noundef %5)
  %7 = icmp ne i32 %6, 0
  br i1 %7, label %8, label %12

8:                                                ; preds = %2
  %9 = load ptr, ptr %3, align 8, !tbaa !43
  %10 = load i32, ptr %4, align 4, !tbaa !12
  %11 = call i32 @Cba_FonConstRangeSize(ptr noundef %9, i32 noundef %10)
  br label %18

12:                                               ; preds = %2
  %13 = load ptr, ptr %3, align 8, !tbaa !43
  %14 = load ptr, ptr %3, align 8, !tbaa !43
  %15 = load i32, ptr %4, align 4, !tbaa !12
  %16 = call i32 @Cba_FonRange(ptr noundef %14, i32 noundef %15)
  %17 = call i32 @Cba_NtkRangeSize(ptr noundef %13, i32 noundef %16)
  br label %18

18:                                               ; preds = %12, %8
  %19 = phi i32 [ %11, %8 ], [ %17, %12 ]
  ret i32 %19
}