; Function Attrs: inlinehint nounwind uwtable
define internal fastcc i32 @Cba_FonRangeSize(ptr noundef captures(none) %0, i32 noundef %1) unnamed_addr #4 {
  %.not = icmp sgt i32 %1, -1
  br i1 %.not, label %9, label %3

3:                                                ; preds = %2
  %.val = load ptr, ptr %0, align 8, !tbaa !49
  %4 = getelementptr i8, ptr %.val, i64 24
  %.val.val = load ptr, ptr %4, align 8, !tbaa !57
  %5 = xor i32 %1, -1
  %6 = tail call ptr @Abc_NamStr(ptr noundef %.val.val, i32 noundef range(i32 -2147483648, 2147483647) %5) #16
  %7 = tail call i64 @strtol(ptr noundef nonnull captures(none) %6, ptr noundef null, i32 noundef 10) #16
  %8 = trunc i64 %7 to i32
  br label %72

9:                                                ; preds = %2
  %10 = getelementptr i8, ptr %0, i64 284
  %.val.i.i = load i32, ptr %10, align 4, !tbaa !22
  %11 = icmp slt i32 %.val.i.i, 1
  br i1 %11, label %Cba_NtkRangeSize.exit, label %12

12:                                               ; preds = %9
  %13 = getelementptr inbounds nuw i8, ptr %0, i64 280
  %14 = add nuw nsw i32 %1, 1
  %.not.i.not.i.i.i = icmp samesign ult i32 %1, %.val.i.i
  br i1 %.not.i.not.i.i.i, label %Cba_FonRange.exit, label %15

15:                                               ; preds = %12
  %16 = load i32, ptr %13, align 8, !tbaa !48
  %17 = shl nsw i32 %16, 1
  %.not.i.i.i = icmp slt i32 %1, %17
  br i1 %.not.i.i.i, label %29, label %18

18:                                               ; preds = %15
  %19 = getelementptr inbounds nuw i8, ptr %0, i64 288
  %20 = load ptr, ptr %19, align 8, !tbaa !23
  %.not9.i.i.i.i.i = icmp eq ptr %20, null
  %21 = zext nneg i32 %14 to i64
  %22 = shl nuw nsw i64 %21, 2
  br i1 %.not9.i.i.i.i.i, label %25, label %23

23:                                               ; preds = %18
  %24 = tail call ptr @realloc(ptr noundef nonnull %20, i64 noundef %22) #17
  br label %27

25:                                               ; preds = %18
  %26 = tail call noalias ptr @malloc(i64 noundef %22) #18
  br label %27

27:                                               ; preds = %25, %23
  %28 = phi ptr [ %24, %23 ], [ %26, %25 ]
  store ptr %28, ptr %19, align 8, !tbaa !23
  br label %Vec_IntGrow.exit.sink.split.i.i.i.i

29:                                               ; preds = %15
  %.not.i.i.not.i.i.i = icmp sgt i32 %16, %1
  br i1 %.not.i.i.not.i.i.i, label %Vec_IntGrow.exit.i.i.i.i, label %30

30:                                               ; preds = %29
  %31 = getelementptr inbounds nuw i8, ptr %0, i64 288
  %32 = load ptr, ptr %31, align 8, !tbaa !23
  %.not9.i21.i.i.i.i = icmp eq ptr %32, null
  %33 = zext nneg i32 %17 to i64
  %34 = shl nuw nsw i64 %33, 2
  br i1 %.not9.i21.i.i.i.i, label %37, label %35

35:                                               ; preds = %30
  %36 = tail call ptr @realloc(ptr noundef nonnull %32, i64 noundef %34) #17
  br label %39

37:                                               ; preds = %30
  %38 = tail call noalias ptr @malloc(i64 noundef %34) #18
  br label %39

39:                                               ; preds = %37, %35
  %40 = phi ptr [ %36, %35 ], [ %38, %37 ]
  store ptr %40, ptr %31, align 8, !tbaa !23
  br label %Vec_IntGrow.exit.sink.split.i.i.i.i

Vec_IntGrow.exit.sink.split.i.i.i.i:              ; preds = %39, %27
  %.sink.i.i.i.i = phi i32 [ %17, %39 ], [ %14, %27 ]
  store i32 %.sink.i.i.i.i, ptr %13, align 8, !tbaa !48
  %.pre.i.i.i = load i32, ptr %10, align 4, !tbaa !22
  br label %Vec_IntGrow.exit.i.i.i.i

Vec_IntGrow.exit.i.i.i.i:                         ; preds = %Vec_IntGrow.exit.sink.split.i.i.i.i, %29
  %41 = phi i32 [ %.pre.i.i.i, %Vec_IntGrow.exit.sink.split.i.i.i.i ], [ %.val.i.i, %29 ]
  %.not3.i.i.i = icmp sgt i32 %41, %1
  br i1 %.not3.i.i.i, label %._crit_edge.i.i.i.i, label %.lr.ph.i.i.i.i

.lr.ph.i.i.i.i:                                   ; preds = %Vec_IntGrow.exit.i.i.i.i
  %42 = getelementptr inbounds nuw i8, ptr %0, i64 288
  %43 = load ptr, ptr %42, align 8, !tbaa !23
  %44 = sext i32 %41 to i64
  %45 = shl nsw i64 %44, 2
  %scevgep.i.i.i.i = getelementptr i8, ptr %43, i64 %45
  %46 = sub i32 %1, %41
  %47 = zext i32 %46 to i64
  %48 = shl nuw nsw i64 %47, 2
  %49 = add nuw nsw i64 %48, 4
  tail call void @llvm.memset.p0.i64(ptr noundef nonnull align 4 dereferenceable(1) %scevgep.i.i.i.i, i8 0, i64 %49, i1 false), !tbaa !24
  br label %._crit_edge.i.i.i.i

._crit_edge.i.i.i.i:                              ; preds = %.lr.ph.i.i.i.i, %Vec_IntGrow.exit.i.i.i.i
  store i32 %14, ptr %10, align 4, !tbaa !22
  br label %Cba_FonRange.exit

Cba_FonRange.exit:                                ; preds = %12, %._crit_edge.i.i.i.i
  %50 = getelementptr i8, ptr %0, i64 288
  %.val.i.i.i = load ptr, ptr %50, align 8, !tbaa !23
  %51 = zext nneg i32 %1 to i64
  %52 = getelementptr inbounds nuw i32, ptr %.val.i.i.i, i64 %51
  %53 = load i32, ptr %52, align 4, !tbaa !24
  %.not.i.i = icmp ult i32 %53, 2
  br i1 %.not.i.i, label %Cba_NtkRangeSize.exit, label %54

54:                                               ; preds = %Cba_FonRange.exit
  %55 = load ptr, ptr %0, align 8, !tbaa !49
  %56 = getelementptr inbounds nuw i8, ptr %55, i64 40
  %57 = load ptr, ptr %56, align 8, !tbaa !56
  %58 = getelementptr inbounds nuw i8, ptr %57, i64 8
  %59 = load ptr, ptr %58, align 8, !tbaa !28
  %60 = shl nsw i32 %53, 1
  %61 = and i32 %60, -4
  %62 = getelementptr i8, ptr %59, i64 8
  %.val.i.i.i.i = load ptr, ptr %62, align 8, !tbaa !23
  %63 = sext i32 %61 to i64
  %64 = getelementptr inbounds i32, ptr %.val.i.i.i.i, i64 %63
  %65 = load i32, ptr %64, align 4, !tbaa !31
  %66 = getelementptr inbounds nuw i8, ptr %64, i64 4
  %67 = load i32, ptr %66, align 4, !tbaa !33
  %68 = sub nsw i32 %65, %67
  br label %Cba_NtkRangeSize.exit

Cba_NtkRangeSize.exit:                            ; preds = %9, %Cba_FonRange.exit, %54
  %69 = phi i32 [ %68, %54 ], [ 0, %Cba_FonRange.exit ], [ 0, %9 ]
  %70 = tail call i32 @llvm.abs.i32(i32 %69, i1 true)
  %71 = add nuw nsw i32 %70, 1
  br label %72

72:                                               ; preds = %Cba_NtkRangeSize.exit, %3
  %73 = phi i32 [ %8, %3 ], [ %71, %Cba_NtkRangeSize.exit ]
  ret i32 %73
}